; Function Attrs: mustprogress uwtable
define hidden void @_ZNK17substitution_tree7displayERSoRK7svectorISt4pairIP3varP4exprEjE(ptr noundef nonnull readonly align 8 captures(none) dereferenceable(136) %0, ptr noundef nonnull align 8 dereferenceable(8) %1, ptr noundef nonnull readonly align 8 captures(none) dereferenceable(8) %2) local_unnamed_addr #5 align 2 {
  %4 = load ptr, ptr %2, align 8, !tbaa !43
  %5 = icmp eq ptr %4, null
  br i1 %5, label %._crit_edge, label %_ZNK6vectorISt4pairIP3varP4exprELb0EjE3endEv.exit

_ZNK6vectorISt4pairIP3varP4exprELb0EjE3endEv.exit: ; preds = %3
  %6 = getelementptr inbounds i8, ptr %4, i64 -4
  %7 = load i32, ptr %6, align 4, !tbaa !33
  %8 = zext i32 %7 to i64
  %9 = getelementptr inbounds nuw %"struct.std::pair", ptr %4, i64 %8
  %.not11 = icmp eq i32 %7, 0
  br i1 %.not11, label %._crit_edge, label %.lr.ph

._crit_edge:                                      ; preds = %12, %3, %_ZNK6vectorISt4pairIP3varP4exprELb0EjE3endEv.exit
  ret void

.lr.ph:                                           ; preds = %_ZNK6vectorISt4pairIP3varP4exprELb0EjE3endEv.exit, %12
  %.013 = phi ptr [ %13, %12 ], [ %4, %_ZNK6vectorISt4pairIP3varP4exprELb0EjE3endEv.exit ]
  %.01012 = phi i1 [ false, %12 ], [ true, %_ZNK6vectorISt4pairIP3varP4exprELb0EjE3endEv.exit ]
  br i1 %.01012, label %12, label %10

10:                                               ; preds = %.lr.ph
  %11 = tail call noundef nonnull align 8 dereferenceable(8) ptr @_ZSt16__ostream_insertIcSt11char_traitsIcEERSt13basic_ostreamIT_T0_ES6_PKS3_l(ptr noundef nonnull align 8 dereferenceable(8) %1, ptr noundef nonnull @.str.5, i64 noundef 2)
  br label %12

12:                                               ; preds = %10, %.lr.ph
  tail call void @_ZNK17substitution_tree7displayERSoRKSt4pairIP3varP4exprE(ptr noundef nonnull align 8 dereferenceable(136) %0, ptr noundef nonnull align 8 dereferenceable(8) %1, ptr noundef nonnull align 8 dereferenceable(16) %.013)
  %13 = getelementptr inbounds nuw i8, ptr %.013, i64 16
  %.not = icmp eq ptr %13, %9
  br i1 %.not, label %._crit_edge, label %.lr.ph, !llvm.loop !125
}